; Function Attrs: mustprogress nounwind uwtable
define internal fastcc void @_ZN5arrow12_GLOBAL__N_113ArrayExporterD2Ev(ptr nocapture noundef nonnull align 8 dereferenceable(376) %this) unnamed_addr #1 align 2 personality ptr @__gxx_personality_v0 {
entry:
  %child_exporters_ = getelementptr inbounds i8, ptr %this, i64 352
  %0 = load ptr, ptr %child_exporters_, align 8
  %_M_finish.i = getelementptr inbounds i8, ptr %this, i64 360
  %1 = load ptr, ptr %_M_finish.i, align 8
  tail call fastcc void @_ZSt8_DestroyIPN5arrow12_GLOBAL__N_113ArrayExporterES2_EvT_S4_RSaIT0_E(ptr noundef %0, ptr noundef %1)
  %this.val.i = load ptr, ptr %child_exporters_, align 8
  %tobool.not.i.i = icmp eq ptr %this.val.i, null
  br i1 %tobool.not.i.i, label %_ZNSt12_Vector_baseIN5arrow12_GLOBAL__N_113ArrayExporterESaIS2_EED2Ev.exit, label %if.then.i.i

if.then.i.i:                                      ; preds = %entry
  tail call void @_ZdlPv(ptr noundef nonnull %this.val.i) #26
  br label %_ZNSt12_Vector_baseIN5arrow12_GLOBAL__N_113ArrayExporterESaIS2_EED2Ev.exit

_ZNSt12_Vector_baseIN5arrow12_GLOBAL__N_113ArrayExporterESaIS2_EED2Ev.exit: ; preds = %entry, %if.then.i.i
  %dict_exporter_ = getelementptr inbounds i8, ptr %this, i64 344
  %2 = load ptr, ptr %dict_exporter_, align 8
  %cmp.not.i = icmp eq ptr %2, null
  br i1 %cmp.not.i, label %_ZNSt10unique_ptrIN5arrow12_GLOBAL__N_113ArrayExporterESt14default_deleteIS2_EED2Ev.exit, label %if.then.i

if.then.i:                                        ; preds = %_ZNSt12_Vector_baseIN5arrow12_GLOBAL__N_113ArrayExporterESaIS2_EED2Ev.exit
  tail call fastcc void @_ZNKSt14default_deleteIN5arrow12_GLOBAL__N_113ArrayExporterEEclEPS2_(ptr noundef nonnull %2)
  br label %_ZNSt10unique_ptrIN5arrow12_GLOBAL__N_113ArrayExporterESt14default_deleteIS2_EED2Ev.exit

_ZNSt10unique_ptrIN5arrow12_GLOBAL__N_113ArrayExporterESt14default_deleteIS2_EED2Ev.exit: ; preds = %_ZNSt12_Vector_baseIN5arrow12_GLOBAL__N_113ArrayExporterESaIS2_EED2Ev.exit, %if.then.i
  store ptr null, ptr %dict_exporter_, align 8
  tail call fastcc void @_ZN5arrow12_GLOBAL__N_124ExportedArrayPrivateDataD2Ev(ptr noundef nonnull align 8 dereferenceable(344) %this) #24
  ret void
}